target datalayout = "e-m:e-p270:32:32-p271:32:32-p272:64:64-i64:64-i128:128-f80:128-n8:16:32:64-S128"
target triple = "x86_64-pc-linux-gnu"

@hf_awdl_version = internal global i32 0, align 4
@hf_awdl_version_devclass = internal global i32 0, align 4
@ett_awdl_version = internal global i32 0, align 4
@add_awdl_version.fields = internal constant [3 x ptr] [ptr @hf_awdl_version_major, ptr @hf_awdl_version_minor, ptr null], align 16
@.str.558 = private unnamed_addr constant [9 x i8] c" (%u.%u)\00", align 1

; Function Attrs: null_pointer_is_valid sspstrong uwtable
define internal ptr @add_awdl_version(ptr noundef %0, i32 noundef %1, ptr noundef %2) #0 {
  %4 = alloca ptr, align 8
  %5 = alloca i32, align 4
  %6 = alloca ptr, align 8
  %7 = alloca ptr, align 8
  %8 = alloca i64, align 8
  store ptr %0, ptr %4, align 8
  store i32 %1, ptr %5, align 4
  store ptr %2, ptr %6, align 8
  call void @llvm.lifetime.start.p0(i64 8, ptr %7) #6
  call void @llvm.lifetime.start.p0(i64 8, ptr %8) #6
  %9 = load ptr, ptr %6, align 8
  %10 = load ptr, ptr %4, align 8
  %11 = load i32, ptr %5, align 4
  %12 = load i32, ptr @hf_awdl_version, align 4
  %13 = load i32, ptr @ett_awdl_version, align 4
  %14 = call ptr @proto_tree_add_bitmask_with_flags_ret_uint64(ptr noundef %9, ptr noundef %10, i32 noundef %11, i32 noundef %12, i32 noundef %13, ptr noundef @add_awdl_version.fields, i32 noundef -2147483648, i32 noundef 1, ptr noundef %8)
  store ptr %14, ptr %7, align 8
  %15 = load ptr, ptr %7, align 8
  %16 = load i64, ptr %8, align 8
  %17 = lshr i64 %16, 4
  %18 = and i64 %17, 15
  %19 = trunc i64 %18 to i8
  %20 = zext i8 %19 to i32
  %21 = load i64, ptr %8, align 8
  %22 = and i64 %21, 15
  %23 = trunc i64 %22 to i8
  %24 = zext i8 %23 to i32
  call void (ptr, ptr, ...) @proto_item_append_text(ptr noundef %15, ptr noundef @.str.558, i32 noundef %20, i32 noundef %24)
  %25 = load ptr, ptr %7, align 8
  call void @llvm.lifetime.end.p0(i64 8, ptr %8) #6
  call void @llvm.lifetime.end.p0(i64 8, ptr %7) #6
  ret ptr %25
}

; Function Attrs: null_pointer_is_valid sspstrong uwtable
define internal i32 @awdl_tag_version(ptr noundef %0, ptr noundef %1, ptr noundef %2, ptr noundef %3) #0 {
  %5 = alloca ptr, align 8
  %6 = alloca ptr, align 8
  %7 = alloca ptr, align 8
  %8 = alloca ptr, align 8
  %9 = alloca i32, align 4
  store ptr %0, ptr %5, align 8
  store ptr %1, ptr %6, align 8
  store ptr %2, ptr %7, align 8
  store ptr %3, ptr %8, align 8
  call void @llvm.lifetime.start.p0(i64 4, ptr %9) #6
  store i32 0, ptr %9, align 4
  %10 = load ptr, ptr %5, align 8
  %11 = load i32, ptr %9, align 4
  %12 = load ptr, ptr %7, align 8
  %13 = call ptr @add_awdl_version(ptr noundef %10, i32 noundef %11, ptr noundef %12)
  %14 = load i32, ptr %9, align 4
  %15 = add i32 %14, 1
  store i32 %15, ptr %9, align 4
  %16 = load ptr, ptr %7, align 8
  %17 = load i32, ptr @hf_awdl_version_devclass, align 4
  %18 = load ptr, ptr %5, align 8
  %19 = load i32, ptr %9, align 4
  %20 = call ptr @proto_tree_add_item(ptr noundef %16, i32 noundef %17, ptr noundef %18, i32 noundef %19, i32 noundef 1, i32 noundef -2147483648)
  %21 = load i32, ptr %9, align 4
  %22 = add i32 %21, 1
  store i32 %22, ptr %9, align 4
  %23 = load i32, ptr %9, align 4
  call void @llvm.lifetime.end.p0(i64 4, ptr %9) #6
  ret i32 %23
}