; Function Attrs: null_pointer_is_valid sspstrong uwtable
define internal noundef i32 @awdl_tag_version(ptr noundef %0, ptr readnone captures(none) %1, ptr noundef %2, ptr readnone captures(none) %3) #0 {
  %5 = alloca i64, align 8
  call void @llvm.lifetime.start.p0(i64 8, ptr nonnull %5) #5
  %6 = load i32, ptr @hf_awdl_version, align 4
  %7 = load i32, ptr @ett_awdl_version, align 4
  %8 = call ptr @proto_tree_add_bitmask_with_flags_ret_uint64(ptr noundef %2, ptr noundef %0, i32 noundef 0, i32 noundef %6, i32 noundef %7, ptr noundef nonnull @add_awdl_version.fields, i32 noundef -2147483648, i32 noundef 1, ptr noundef nonnull %5)
  %9 = load i64, ptr %5, align 8
  %10 = trunc i64 %9 to i32
  %11 = lshr i32 %10, 4
  %12 = and i32 %11, 15
  %13 = and i32 %10, 15
  call void (ptr, ptr, ...) @proto_item_append_text(ptr noundef %8, ptr noundef nonnull @.str.558, i32 noundef %12, i32 noundef %13)
  call void @llvm.lifetime.end.p0(i64 8, ptr nonnull %5) #5
  %14 = load i32, ptr @hf_awdl_version_devclass, align 4
  %15 = call ptr @proto_tree_add_item(ptr noundef %2, i32 noundef %14, ptr noundef %0, i32 noundef 1, i32 noundef 1, i32 noundef -2147483648)
  ret i32 2
}